; Function Attrs: mustprogress nofree norecurse nosync nounwind willreturn memory(read, argmem: readwrite, inaccessiblemem: none) uwtable
define internal fastcc noundef zeroext i1 @_ZN32pxrInternal_v0_24__pxrReserved__21pxr_double_conversionL7AdvanceIPKcEEbPT_tiRS4_(ptr nocapture noundef %0, i16 noundef zeroext %1, i32 noundef %2, ptr nocapture noundef nonnull readonly align 8 dereferenceable(8) %3) unnamed_addr #1 {
  %5 = zext i16 %1 to i32
  %6 = icmp eq i16 %1, 0
  %7 = load ptr, ptr %0, align 8
  br i1 %6, label %8, label %12

8:                                                ; preds = %4
  %9 = getelementptr inbounds i8, ptr %7, i64 1
  store ptr %9, ptr %0, align 8
  %10 = load ptr, ptr %3, align 8
  %11 = icmp eq ptr %9, %10
  br label %57

12:                                               ; preds = %4
  %13 = load i8, ptr %7, align 1
  %14 = sext i8 %13 to i32
  %15 = add nsw i32 %14, -48
  %or.cond.i = icmp ult i32 %15, 10
  %16 = add nuw nsw i32 %2, 48
  %17 = icmp sgt i32 %16, %14
  %or.cond19.i = select i1 %or.cond.i, i1 %17, i1 false
  br i1 %or.cond19.i, label %_ZN32pxrInternal_v0_24__pxrReserved__21pxr_double_conversionL7isDigitEii.exit.thread, label %18

18:                                               ; preds = %12
  %19 = icmp sgt i32 %2, 10
  %20 = icmp sgt i8 %13, 96
  %or.cond3.i = and i1 %19, %20
  %21 = add nuw nsw i32 %2, 87
  %22 = icmp sgt i32 %21, %14
  %or.cond21.i = select i1 %or.cond3.i, i1 %22, i1 false
  br i1 %or.cond21.i, label %_ZN32pxrInternal_v0_24__pxrReserved__21pxr_double_conversionL7isDigitEii.exit.thread, label %23

23:                                               ; preds = %18
  %24 = icmp sgt i8 %13, 64
  %or.cond5.i = and i1 %19, %24
  %25 = add nuw nsw i32 %2, 55
  %26 = icmp ugt i32 %25, %14
  %or.cond = select i1 %or.cond5.i, i1 %26, i1 false
  br i1 %or.cond, label %_ZN32pxrInternal_v0_24__pxrReserved__21pxr_double_conversionL7isDigitEii.exit.thread, label %_ZN32pxrInternal_v0_24__pxrReserved__21pxr_double_conversionL7isDigitEii.exit.thread31

_ZN32pxrInternal_v0_24__pxrReserved__21pxr_double_conversionL7isDigitEii.exit.thread31: ; preds = %23
  %27 = getelementptr inbounds i8, ptr %7, i64 1
  store ptr %27, ptr %0, align 8
  %28 = load ptr, ptr %3, align 8
  %29 = icmp eq ptr %27, %28
  br label %57

_ZN32pxrInternal_v0_24__pxrReserved__21pxr_double_conversionL7isDigitEii.exit.thread: ; preds = %23, %18, %12
  %30 = getelementptr inbounds i8, ptr %7, i64 1
  store ptr %30, ptr %0, align 8
  %31 = load ptr, ptr %3, align 8
  %32 = icmp eq ptr %30, %31
  br i1 %32, label %57, label %33

33:                                               ; preds = %_ZN32pxrInternal_v0_24__pxrReserved__21pxr_double_conversionL7isDigitEii.exit.thread
  %34 = getelementptr inbounds i8, ptr %7, i64 2
  %35 = icmp eq ptr %34, %31
  br i1 %35, label %57, label %36

36:                                               ; preds = %33
  %37 = load i8, ptr %30, align 1
  %38 = sext i8 %37 to i32
  %39 = icmp eq i32 %38, %5
  br i1 %39, label %40, label %_ZN32pxrInternal_v0_24__pxrReserved__21pxr_double_conversionL7isDigitEii.exit30.thread32

40:                                               ; preds = %36
  %41 = load i8, ptr %34, align 1
  %42 = sext i8 %41 to i32
  %43 = add nsw i32 %42, -48
  %or.cond.i25 = icmp ult i32 %43, 10
  %44 = icmp sgt i32 %16, %42
  %or.cond19.i26 = select i1 %or.cond.i25, i1 %44, i1 false
  br i1 %or.cond19.i26, label %_ZN32pxrInternal_v0_24__pxrReserved__21pxr_double_conversionL7isDigitEii.exit30.thread, label %45

45:                                               ; preds = %40
  %46 = icmp sgt i32 %2, 10
  %47 = icmp sgt i8 %41, 96
  %or.cond3.i27 = and i1 %46, %47
  %48 = add nuw nsw i32 %2, 87
  %49 = icmp sgt i32 %48, %42
  %or.cond21.i28 = select i1 %or.cond3.i27, i1 %49, i1 false
  br i1 %or.cond21.i28, label %_ZN32pxrInternal_v0_24__pxrReserved__21pxr_double_conversionL7isDigitEii.exit30.thread, label %50

50:                                               ; preds = %45
  %51 = icmp sgt i8 %41, 64
  %or.cond5.i29 = and i1 %46, %51
  %52 = add nuw nsw i32 %2, 55
  %53 = icmp ugt i32 %52, %42
  %or.cond35 = select i1 %or.cond5.i29, i1 %53, i1 false
  br i1 %or.cond35, label %_ZN32pxrInternal_v0_24__pxrReserved__21pxr_double_conversionL7isDigitEii.exit30.thread, label %_ZN32pxrInternal_v0_24__pxrReserved__21pxr_double_conversionL7isDigitEii.exit30.thread32

_ZN32pxrInternal_v0_24__pxrReserved__21pxr_double_conversionL7isDigitEii.exit30.thread: ; preds = %50, %45, %40
  store ptr %34, ptr %0, align 8
  %.pre = load ptr, ptr %3, align 8
  br label %_ZN32pxrInternal_v0_24__pxrReserved__21pxr_double_conversionL7isDigitEii.exit30.thread32

_ZN32pxrInternal_v0_24__pxrReserved__21pxr_double_conversionL7isDigitEii.exit30.thread32: ; preds = %50, %_ZN32pxrInternal_v0_24__pxrReserved__21pxr_double_conversionL7isDigitEii.exit30.thread, %36
  %54 = phi ptr [ %31, %50 ], [ %.pre, %_ZN32pxrInternal_v0_24__pxrReserved__21pxr_double_conversionL7isDigitEii.exit30.thread ], [ %31, %36 ]
  %55 = phi ptr [ %30, %50 ], [ %34, %_ZN32pxrInternal_v0_24__pxrReserved__21pxr_double_conversionL7isDigitEii.exit30.thread ], [ %30, %36 ]
  %56 = icmp eq ptr %55, %54
  br label %57

57:                                               ; preds = %33, %_ZN32pxrInternal_v0_24__pxrReserved__21pxr_double_conversionL7isDigitEii.exit.thread, %_ZN32pxrInternal_v0_24__pxrReserved__21pxr_double_conversionL7isDigitEii.exit30.thread32, %_ZN32pxrInternal_v0_24__pxrReserved__21pxr_double_conversionL7isDigitEii.exit.thread31, %8
  %.0 = phi i1 [ %11, %8 ], [ %56, %_ZN32pxrInternal_v0_24__pxrReserved__21pxr_double_conversionL7isDigitEii.exit30.thread32 ], [ %29, %_ZN32pxrInternal_v0_24__pxrReserved__21pxr_double_conversionL7isDigitEii.exit.thread31 ], [ true, %_ZN32pxrInternal_v0_24__pxrReserved__21pxr_double_conversionL7isDigitEii.exit.thread ], [ false, %33 ]
  ret i1 %.0
}